	.section	__TEXT,__text,regular,pure_instructions
	.build_version macos, 14, 0	sdk_version 15, 2
	.globl	_Fatal                          ## -- Begin function Fatal
	.p2align	4, 0x90
_Fatal:                                 ## @Fatal
	.cfi_startproc
## %bb.0:
	pushq	%rbp
	.cfi_def_cfa_offset 16
	.cfi_offset %rbp, -16
	movq	%rsp, %rbp
	.cfi_def_cfa_register %rbp
	xorl	%eax, %eax
	callq	_libmin_printf
	movl	$1, %edi
	popq	%rbp
	jmp	_libmin_fail                    ## TAILCALL
	.cfi_endproc
                                        ## -- End function
	.globl	_ReadDict                       ## -- Begin function ReadDict
	.p2align	4, 0x90
_ReadDict:                              ## @ReadDict
	.cfi_startproc
## %bb.0:
	pushq	%rbp
	.cfi_def_cfa_offset 16
	.cfi_offset %rbp, -16
	movq	%rsp, %rbp
	.cfi_def_cfa_register %rbp
	pushq	%r15
	pushq	%r14
	pushq	%r13
	pushq	%r12
	pushq	%rbx
	subq	$24, %rsp
	.cfi_offset %rbx, -56
	.cfi_offset %r12, -48
	.cfi_offset %r13, -40
	.cfi_offset %r14, -32
	.cfi_offset %r15, -24
	movq	_mwords(%rip), %rdi
	callq	_libmin_msize
	addq	$52000, %rax                    ## imm = 0xCB20
	movq	%rax, -56(%rbp)                 ## 8-byte Spill
	movq	%rax, %rdi
	callq	_libmin_malloc
	movq	%rax, %r14
	movq	_pchDictionary@GOTPCREL(%rip), %rax
	movq	%r14, (%rax)
	testq	%r14, %r14
	jne	LBB1_2
## %bb.1:
	leaq	L_.str.2(%rip), %rdi
	xorl	%esi, %esi
	xorl	%eax, %eax
	callq	_libmin_printf
	movl	$1, %edi
	callq	_libmin_fail
LBB1_2:
	movq	_mwords(%rip), %rdi
	leaq	L_.str.3(%rip), %rsi
	callq	_libmin_mopen
	movq	_mwords(%rip), %rdi
	callq	_libmin_meof
	xorl	%ebx, %ebx
	testl	%eax, %eax
	je	LBB1_3
LBB1_9:
	movq	_mwords(%rip), %rdi
	callq	_libmin_mclose
	movb	$0, (%r14)
	leaq	L_.str.4(%rip), %rdi
	movl	%ebx, %esi
	xorl	%eax, %eax
	callq	_libmin_printf
	cmpl	$26000, %ebx                    ## imm = 0x6590
	jb	LBB1_11
## %bb.10:
	leaq	L_.str.5(%rip), %rdi
	xorl	%esi, %esi
	xorl	%eax, %eax
	callq	_libmin_printf
	movl	$1, %edi
	callq	_libmin_fail
LBB1_11:
	notq	%r14
	addq	-56(%rbp), %r14                 ## 8-byte Folded Reload
	movq	_pchDictionary@GOTPCREL(%rip), %rax
	addq	(%rax), %r14
	leaq	L_.str.6(%rip), %rdi
	movq	%r14, %rsi
	xorl	%eax, %eax
	addq	$24, %rsp
	popq	%rbx
	popq	%r12
	popq	%r13
	popq	%r14
	popq	%r15
	popq	%rbp
	jmp	_libmin_printf                  ## TAILCALL
LBB1_3:
	xorl	%ebx, %ebx
	movq	__pctype@GOTPCREL(%rip), %r13
	jmp	LBB1_4
	.p2align	4, 0x90
LBB1_8:                                 ##   in Loop: Header=BB1_4 Depth=1
	movb	$0, -1(%r14)
	movb	%r15b, (%r12)
	movb	%bl, 1(%r12)
	movl	-44(%rbp), %ebx                 ## 4-byte Reload
	incl	%ebx
	movq	_mwords(%rip), %rdi
	callq	_libmin_meof
	testl	%eax, %eax
	jne	LBB1_9
LBB1_4:                                 ## =>This Loop Header: Depth=1
                                        ##     Child Loop BB1_5 Depth 2
	movl	%ebx, -44(%rbp)                 ## 4-byte Spill
	movq	%r14, %r12
	addq	$3, %r14
	movb	$3, %r15b
	xorl	%ebx, %ebx
	.p2align	4, 0x90
LBB1_5:                                 ##   Parent Loop BB1_4 Depth=1
                                        ## =>  This Inner Loop Header: Depth=2
	movq	_mwords(%rip), %rdi
	callq	_libmin_mgetc
	cmpl	$-1, %eax
	je	LBB1_8
## %bb.6:                               ##   in Loop: Header=BB1_5 Depth=2
	cmpl	$10, %eax
	je	LBB1_8
## %bb.7:                               ##   in Loop: Header=BB1_5 Depth=2
	movq	(%r13), %rcx
	movslq	%eax, %rdx
	movzwl	(%rcx,%rdx,2), %ecx
	andl	$3, %ecx
	cmpw	$1, %cx
	sbbb	$-1, %bl
	movb	%al, -1(%r14)
	incq	%r14
	incb	%r15b
	jmp	LBB1_5
	.cfi_endproc
                                        ## -- End function
	.globl	_BuildMask                      ## -- Begin function BuildMask
	.p2align	4, 0x90
_BuildMask:                             ## @BuildMask
	.cfi_startproc
## %bb.0:
	pushq	%rbp
	.cfi_def_cfa_offset 16
	.cfi_offset %rbp, -16
	movq	%rsp, %rbp
	.cfi_def_cfa_register %rbp
	pushq	%r15
	pushq	%r14
	pushq	%r13
	pushq	%r12
	pushq	%rbx
	subq	$24, %rsp
	.cfi_offset %rbx, -56
	.cfi_offset %r12, -48
	.cfi_offset %r13, -40
	.cfi_offset %r14, -32
	.cfi_offset %r15, -24
	movq	%rdi, %r12
	movq	_alPhrase@GOTPCREL(%rip), %rdi
	xorl	%r14d, %r14d
	movl	$416, %edx                      ## imm = 0x1A0
	xorl	%esi, %esi
	callq	_libmin_memset
	movq	_aqMainMask@GOTPCREL(%rip), %rdi
	movl	$16, %edx
	xorl	%esi, %esi
	callq	_libmin_memset
	movq	_aqMainSign@GOTPCREL(%rip), %rdi
	movl	$16, %edx
	xorl	%esi, %esi
	callq	_libmin_memset
	movq	_cchPhraseLength@GOTPCREL(%rip), %rax
	movl	$0, (%rax)
	movzbl	(%r12), %edx
	testb	%dl, %dl
	je	LBB2_7
## %bb.1:
	movq	__pctype@GOTPCREL(%rip), %rcx
	movq	(%rcx), %rcx
	incq	%r12
	jmp	LBB2_2
	.p2align	4, 0x90
LBB2_5:                                 ##   in Loop: Header=BB2_2 Depth=1
	movq	_alPhrase@GOTPCREL(%rip), %rsi
	movslq	%edx, %rdx
	shlq	$4, %rdx
	incl	-1552(%rdx,%rsi)
	incl	%r14d
	movl	%r14d, (%rax)
LBB2_6:                                 ##   in Loop: Header=BB2_2 Depth=1
	movzbl	(%r12), %edx
	incq	%r12
	testb	%dl, %dl
	je	LBB2_7
LBB2_2:                                 ## =>This Inner Loop Header: Depth=1
	movsbq	%dl, %rsi
	movzwl	(%rcx,%rsi,2), %esi
	testb	$3, %sil
	je	LBB2_6
## %bb.3:                               ##   in Loop: Header=BB2_2 Depth=1
	movsbl	%dl, %edx
	testb	$1, %sil
	je	LBB2_5
## %bb.4:                               ##   in Loop: Header=BB2_2 Depth=1
	addl	$32, %edx
	jmp	LBB2_5
LBB2_7:
	xorl	%r12d, %r12d
	movq	_auGlobalFrequency@GOTPCREL(%rip), %r10
	xorl	%r13d, %r13d
	xorl	%r11d, %r11d
	movq	_alPhrase@GOTPCREL(%rip), %rdi
	movq	_aqMainMask@GOTPCREL(%rip), %r8
	movq	_aqMainSign@GOTPCREL(%rip), %r9
	jmp	LBB2_8
	.p2align	4, 0x90
LBB2_15:                                ##   in Loop: Header=BB2_8 Depth=1
	leal	-1(%r15), %edx
	movl	%r13d, %ecx
	shlq	%cl, %r15
	movl	%r11d, %esi
	orq	%r15, (%r9,%rsi,8)
	shlq	%cl, %rax
	orq	%rax, (%r8,%rsi,8)
	movl	%edx, 8(%rdi,%r14)
	movl	%r13d, 4(%rdi,%r14)
	movl	%r11d, 12(%rdi,%r14)
	addl	%ebx, %r13d
LBB2_16:                                ##   in Loop: Header=BB2_8 Depth=1
	incq	%r12
	cmpq	$26, %r12
	je	LBB2_17
LBB2_8:                                 ## =>This Loop Header: Depth=1
                                        ##     Child Loop BB2_11 Depth 2
	movq	%r12, %r14
	shlq	$4, %r14
	movl	(%rdi,%r14), %eax
	testq	%rax, %rax
	je	LBB2_9
## %bb.10:                              ##   in Loop: Header=BB2_8 Depth=1
	leaq	(%rdi,%r14), %rdx
	movl	$0, (%r10,%r12,4)
	movl	$1, %ebx
	movl	$1, %r15d
	.p2align	4, 0x90
LBB2_11:                                ##   Parent Loop BB2_8 Depth=1
                                        ## =>  This Inner Loop Header: Depth=2
	incl	%ebx
	addq	%r15, %r15
	cmpq	%rax, %r15
	jbe	LBB2_11
## %bb.12:                              ##   in Loop: Header=BB2_8 Depth=1
	leal	(%rbx,%r13), %ecx
	cmpl	$33, %ecx
	jl	LBB2_15
## %bb.13:                              ##   in Loop: Header=BB2_8 Depth=1
	incl	%r11d
	xorl	%r13d, %r13d
	cmpl	$2, %r11d
	jb	LBB2_15
## %bb.14:                              ##   in Loop: Header=BB2_8 Depth=1
	xorl	%r13d, %r13d
	leaq	L_.str.7(%rip), %rdi
	xorl	%esi, %esi
	xorl	%eax, %eax
	movl	%r11d, -44(%rbp)                ## 4-byte Spill
	movq	%rdx, -56(%rbp)                 ## 8-byte Spill
	callq	_libmin_printf
	movl	$1, %edi
	callq	_libmin_fail
	movl	-44(%rbp), %r11d                ## 4-byte Reload
	movq	_auGlobalFrequency@GOTPCREL(%rip), %r10
	movq	_aqMainSign@GOTPCREL(%rip), %r9
	movq	_aqMainMask@GOTPCREL(%rip), %r8
	movq	_alPhrase@GOTPCREL(%rip), %rdi
	movq	-56(%rbp), %rax                 ## 8-byte Reload
	movl	(%rax), %eax
	jmp	LBB2_15
	.p2align	4, 0x90
LBB2_9:                                 ##   in Loop: Header=BB2_8 Depth=1
	movl	$-1, (%r10,%r12,4)
	jmp	LBB2_16
LBB2_17:
	addq	$24, %rsp
	popq	%rbx
	popq	%r12
	popq	%r13
	popq	%r14
	popq	%r15
	popq	%rbp
	retq
	.cfi_endproc
                                        ## -- End function
	.globl	_NewWord                        ## -- Begin function NewWord
	.p2align	4, 0x90
_NewWord:                               ## @NewWord
	.cfi_startproc
## %bb.0:
	pushq	%rbp
	.cfi_def_cfa_offset 16
	.cfi_offset %rbp, -16
	movq	%rsp, %rbp
	.cfi_def_cfa_register %rbp
	pushq	%rbx
	pushq	%rax
	.cfi_offset %rbx, -24
	movl	$32, %edi
	callq	_libmin_malloc
	movq	%rax, %rbx
	testq	%rax, %rax
	jne	LBB3_2
## %bb.1:
	movq	_cpwCand@GOTPCREL(%rip), %rax
	movl	(%rax), %esi
	leaq	L_.str.8(%rip), %rdi
	xorl	%eax, %eax
	callq	_libmin_printf
	movl	$1, %edi
	callq	_libmin_fail
LBB3_2:
	movq	%rbx, %rax
	addq	$8, %rsp
	popq	%rbx
	popq	%rbp
	retq
	.cfi_endproc
                                        ## -- End function
	.globl	_wprint                         ## -- Begin function wprint
	.p2align	4, 0x90
_wprint:                                ## @wprint
	.cfi_startproc
## %bb.0:
	pushq	%rbp
	.cfi_def_cfa_offset 16
	.cfi_offset %rbp, -16
	movq	%rsp, %rbp
	.cfi_def_cfa_register %rbp
	movq	%rdi, %rsi
	leaq	L_.str.9(%rip), %rdi
	xorl	%eax, %eax
	popq	%rbp
	jmp	_libmin_printf                  ## TAILCALL
	.cfi_endproc
                                        ## -- End function
	.globl	_NextWord                       ## -- Begin function NextWord
	.p2align	4, 0x90
_NextWord:                              ## @NextWord
	.cfi_startproc
## %bb.0:
	pushq	%rbp
	.cfi_def_cfa_offset 16
	.cfi_offset %rbp, -16
	movq	%rsp, %rbp
	.cfi_def_cfa_register %rbp
	pushq	%r15
	pushq	%r14
	pushq	%rbx
	pushq	%rax
	.cfi_offset %rbx, -40
	.cfi_offset %r14, -32
	.cfi_offset %r15, -24
	movq	_cpwCand@GOTPCREL(%rip), %r14
	movl	(%r14), %eax
	cmpl	$5000, %eax                     ## imm = 0x1388
	jb	LBB5_2
## %bb.1:
	leaq	L_.str.10(%rip), %rdi
	xorl	%esi, %esi
	xorl	%eax, %eax
	callq	_libmin_printf
	movl	$1, %edi
	callq	_libmin_fail
	movl	(%r14), %eax
LBB5_2:
	leal	1(%rax), %ecx
	movl	%ecx, (%r14)
	movl	%eax, %eax
	movq	_apwCand@GOTPCREL(%rip), %r15
	movq	(%r15,%rax,8), %rbx
	testq	%rbx, %rbx
	jne	LBB5_6
## %bb.3:
	movl	$32, %edi
	callq	_libmin_malloc
	movq	%rax, %rbx
	testq	%rax, %rax
	jne	LBB5_5
## %bb.4:
	movl	(%r14), %esi
	leaq	L_.str.8(%rip), %rdi
	xorl	%eax, %eax
	callq	_libmin_printf
	movl	$1, %edi
	callq	_libmin_fail
LBB5_5:
	movl	(%r14), %eax
	decl	%eax
	movq	%rbx, (%r15,%rax,8)
LBB5_6:
	movq	%rbx, %rax
	addq	$8, %rsp
	popq	%rbx
	popq	%r14
	popq	%r15
	popq	%rbp
	retq
	.cfi_endproc
                                        ## -- End function
	.globl	_BuildWord                      ## -- Begin function BuildWord
	.p2align	4, 0x90
_BuildWord:                             ## @BuildWord
	.cfi_startproc
## %bb.0:
	pushq	%rbp
	.cfi_def_cfa_offset 16
	.cfi_offset %rbp, -16
	movq	%rsp, %rbp
	.cfi_def_cfa_register %rbp
	pushq	%r15
	pushq	%r14
	pushq	%r12
	pushq	%rbx
	subq	$48, %rsp
	.cfi_offset %rbx, -48
	.cfi_offset %r12, -40
	.cfi_offset %r14, -32
	.cfi_offset %r15, -24
	movq	%rdi, %rbx
	movq	___stack_chk_guard@GOTPCREL(%rip), %rax
	movq	(%rax), %rax
	movq	%rax, -40(%rbp)
	leaq	-80(%rbp), %rdi
	xorl	%r12d, %r12d
	movl	$26, %edx
	xorl	%esi, %esi
	callq	_libmin_memset
	movq	__pctype@GOTPCREL(%rip), %rax
	movq	(%rax), %rax
	movq	_alPhrase@GOTPCREL(%rip), %r15
	movq	%rbx, %rcx
	.p2align	4, 0x90
LBB6_1:                                 ## =>This Inner Loop Header: Depth=1
	movsbq	(%rcx), %rdx
	testq	%rdx, %rdx
	je	LBB6_2
## %bb.6:                               ##   in Loop: Header=BB6_1 Depth=1
	incq	%rcx
	movzwl	(%rax,%rdx,2), %esi
	testb	$3, %sil
	je	LBB6_1
## %bb.7:                               ##   in Loop: Header=BB6_1 Depth=1
	leal	32(%rdx), %edi
	testb	$1, %sil
	cmovel	%edx, %edi
	movslq	%edi, %rdx
	leaq	-97(%rdx), %rsi
	movzbl	-177(%rbp,%rdx), %edi
	incb	%dil
	movb	%dil, -177(%rbp,%rdx)
	movzbl	%dil, %edx
	shlq	$4, %rsi
	cmpl	%edx, (%r15,%rsi)
	jb	LBB6_4
## %bb.8:                               ##   in Loop: Header=BB6_1 Depth=1
	incl	%r12d
	jmp	LBB6_1
LBB6_2:
	pmovzxbd	-80(%rbp), %xmm0                ## xmm0 = mem[0],zero,zero,zero,mem[1],zero,zero,zero,mem[2],zero,zero,zero,mem[3],zero,zero,zero
	pmovzxbd	-76(%rbp), %xmm1                ## xmm1 = mem[0],zero,zero,zero,mem[1],zero,zero,zero,mem[2],zero,zero,zero,mem[3],zero,zero,zero
	movq	_auGlobalFrequency@GOTPCREL(%rip), %rax
	paddd	(%rax), %xmm0
	paddd	16(%rax), %xmm1
	movdqa	%xmm0, (%rax)
	movdqa	%xmm1, 16(%rax)
	pmovzxbd	-72(%rbp), %xmm0                ## xmm0 = mem[0],zero,zero,zero,mem[1],zero,zero,zero,mem[2],zero,zero,zero,mem[3],zero,zero,zero
	pmovzxbd	-68(%rbp), %xmm1                ## xmm1 = mem[0],zero,zero,zero,mem[1],zero,zero,zero,mem[2],zero,zero,zero,mem[3],zero,zero,zero
	paddd	32(%rax), %xmm0
	paddd	48(%rax), %xmm1
	movdqa	%xmm0, 32(%rax)
	movdqa	%xmm1, 48(%rax)
	pmovzxbd	-64(%rbp), %xmm0                ## xmm0 = mem[0],zero,zero,zero,mem[1],zero,zero,zero,mem[2],zero,zero,zero,mem[3],zero,zero,zero
	pmovzxbd	-60(%rbp), %xmm1                ## xmm1 = mem[0],zero,zero,zero,mem[1],zero,zero,zero,mem[2],zero,zero,zero,mem[3],zero,zero,zero
	paddd	64(%rax), %xmm0
	paddd	80(%rax), %xmm1
	movdqa	%xmm0, 64(%rax)
	movdqa	%xmm1, 80(%rax)
	movzbl	-56(%rbp), %ecx
	addl	%ecx, 96(%rax)
	movzbl	-55(%rbp), %ecx
	addl	%ecx, 100(%rax)
	callq	_NextWord
	movq	%rax, %r14
	movl	$16, %edx
	movq	%rax, %rdi
	xorl	%esi, %esi
	callq	_libmin_memset
	movq	%rbx, 16(%r14)
	movl	%r12d, 24(%r14)
	addq	$28, %r15
	movl	$1, %eax
	.p2align	4, 0x90
LBB6_3:                                 ## =>This Inner Loop Header: Depth=1
	movzbl	-81(%rbp,%rax), %edx
	movzbl	-24(%r15), %ecx
	shlq	%cl, %rdx
	movl	-16(%r15), %ecx
	orq	%rdx, (%r14,%rcx,8)
	movzbl	-80(%rbp,%rax), %edx
	movzbl	-8(%r15), %ecx
	shlq	%cl, %rdx
	movl	(%r15), %ecx
	orq	%rdx, (%r14,%rcx,8)
	addq	$2, %rax
	addq	$32, %r15
	cmpq	$27, %rax
	jne	LBB6_3
LBB6_4:
	movq	___stack_chk_guard@GOTPCREL(%rip), %rax
	movq	(%rax), %rax
	cmpq	-40(%rbp), %rax
	jne	LBB6_9
## %bb.5:
	addq	$48, %rsp
	popq	%rbx
	popq	%r12
	popq	%r14
	popq	%r15
	popq	%rbp
	retq
LBB6_9:
	callq	___stack_chk_fail
	.cfi_endproc
                                        ## -- End function
	.globl	_AddWords                       ## -- Begin function AddWords
	.p2align	4, 0x90
_AddWords:                              ## @AddWords
	.cfi_startproc
## %bb.0:
	pushq	%rbp
	.cfi_def_cfa_offset 16
	.cfi_offset %rbp, -16
	movq	%rsp, %rbp
	.cfi_def_cfa_register %rbp
	pushq	%r15
	pushq	%r14
	pushq	%rbx
	pushq	%rax
	.cfi_offset %rbx, -40
	.cfi_offset %r14, -32
	.cfi_offset %r15, -24
	movq	_pchDictionary@GOTPCREL(%rip), %rax
	movq	(%rax), %r14
	movq	_cpwCand@GOTPCREL(%rip), %rbx
	movl	$0, (%rbx)
	movzbl	(%r14), %eax
	testb	%al, %al
	je	LBB7_1
## %bb.2:
	movl	_cchMinLength(%rip), %ecx
	movq	_cchPhraseLength@GOTPCREL(%rip), %r15
	jmp	LBB7_3
	.p2align	4, 0x90
LBB7_7:                                 ##   in Loop: Header=BB7_3 Depth=1
	leaq	2(%r14), %rdi
	callq	_BuildWord
	movl	_cchMinLength(%rip), %ecx
	movzbl	(%r14), %eax
LBB7_8:                                 ##   in Loop: Header=BB7_3 Depth=1
	movsbq	%al, %rdx
	movzbl	(%r14,%rdx), %eax
	addq	%rdx, %r14
	testb	%al, %al
	je	LBB7_9
LBB7_3:                                 ## =>This Inner Loop Header: Depth=1
	movsbl	1(%r14), %edx
	cmpl	%edx, %ecx
	jle	LBB7_4
## %bb.6:                               ##   in Loop: Header=BB7_3 Depth=1
	cmpl	%edx, (%r15)
	je	LBB7_7
	jmp	LBB7_8
	.p2align	4, 0x90
LBB7_4:                                 ##   in Loop: Header=BB7_3 Depth=1
	leal	(%rcx,%rdx), %edi
	movl	(%r15), %esi
	cmpl	%esi, %edi
	jle	LBB7_7
## %bb.5:                               ##   in Loop: Header=BB7_3 Depth=1
	cmpl	%edx, %esi
	jne	LBB7_8
	jmp	LBB7_7
LBB7_9:
	movl	(%rbx), %esi
	jmp	LBB7_10
LBB7_1:
	xorl	%esi, %esi
LBB7_10:
	leaq	L_.str.11(%rip), %rdi
	xorl	%eax, %eax
	addq	$8, %rsp
	popq	%rbx
	popq	%r14
	popq	%r15
	popq	%rbp
	jmp	_libmin_printf                  ## TAILCALL
	.cfi_endproc
                                        ## -- End function
	.globl	_DumpCandidates                 ## -- Begin function DumpCandidates
	.p2align	4, 0x90
_DumpCandidates:                        ## @DumpCandidates
	.cfi_startproc
## %bb.0:
	pushq	%rbp
	.cfi_def_cfa_offset 16
	.cfi_offset %rbp, -16
	movq	%rsp, %rbp
	.cfi_def_cfa_register %rbp
	pushq	%r15
	pushq	%r14
	pushq	%r13
	pushq	%r12
	pushq	%rbx
	pushq	%rax
	.cfi_offset %rbx, -56
	.cfi_offset %r12, -48
	.cfi_offset %r13, -40
	.cfi_offset %r14, -32
	.cfi_offset %r15, -24
	movq	_cpwCand@GOTPCREL(%rip), %r14
	cmpl	$0, (%r14)
	je	LBB8_3
## %bb.1:
	movq	_apwCand@GOTPCREL(%rip), %r15
	movl	$10, %r12d
	leaq	L_.str.12(%rip), %rbx
	xorl	%r13d, %r13d
	.p2align	4, 0x90
LBB8_2:                                 ## =>This Inner Loop Header: Depth=1
	movq	(%r15,%r13,8), %rax
	movq	16(%rax), %rsi
	movl	%r13d, %eax
	notl	%eax
	testb	$3, %al
	movl	$32, %edx
	cmovel	%r12d, %edx
	movq	%rbx, %rdi
	xorl	%eax, %eax
	callq	_libmin_printf
	incq	%r13
	movl	(%r14), %eax
	cmpq	%rax, %r13
	jb	LBB8_2
LBB8_3:
	leaq	L_.str.13(%rip), %rdi
	xorl	%eax, %eax
	addq	$8, %rsp
	popq	%rbx
	popq	%r12
	popq	%r13
	popq	%r14
	popq	%r15
	popq	%rbp
	jmp	_libmin_printf                  ## TAILCALL
	.cfi_endproc
                                        ## -- End function
	.globl	_DumpWords                      ## -- Begin function DumpWords
	.p2align	4, 0x90
_DumpWords:                             ## @DumpWords
	.cfi_startproc
## %bb.0:
	pushq	%rbp
	.cfi_def_cfa_offset 16
	.cfi_offset %rbp, -16
	movq	%rsp, %rbp
	.cfi_def_cfa_register %rbp
	pushq	%r15
	pushq	%r14
	pushq	%r12
	pushq	%rbx
	.cfi_offset %rbx, -48
	.cfi_offset %r12, -40
	.cfi_offset %r14, -32
	.cfi_offset %r15, -24
	movq	_cpwLast@GOTPCREL(%rip), %r14
	cmpl	$0, (%r14)
	jle	LBB9_3
## %bb.1:
	movq	_apwSol@GOTPCREL(%rip), %r15
	leaq	L_.str.9(%rip), %rbx
	xorl	%r12d, %r12d
	.p2align	4, 0x90
LBB9_2:                                 ## =>This Inner Loop Header: Depth=1
	movq	(%r15,%r12,8), %rax
	movq	16(%rax), %rsi
	movq	%rbx, %rdi
	xorl	%eax, %eax
	callq	_libmin_printf
	incq	%r12
	movslq	(%r14), %rax
	cmpq	%rax, %r12
	jl	LBB9_2
LBB9_3:
	leaq	L_.str.13(%rip), %rdi
	xorl	%eax, %eax
	popq	%rbx
	popq	%r12
	popq	%r14
	popq	%r15
	popq	%rbp
	jmp	_libmin_printf                  ## TAILCALL
	.cfi_endproc
                                        ## -- End function
	.globl	_FindAnagram                    ## -- Begin function FindAnagram
	.p2align	4, 0x90
_FindAnagram:                           ## @FindAnagram
	.cfi_startproc
## %bb.0:
	pushq	%rbp
	.cfi_def_cfa_offset 16
	.cfi_offset %rbp, -16
	movq	%rsp, %rbp
	.cfi_def_cfa_register %rbp
	pushq	%r15
	pushq	%r14
	pushq	%r13
	pushq	%r12
	pushq	%rbx
	subq	$56, %rsp
	.cfi_offset %rbx, -56
	.cfi_offset %r12, -48
	.cfi_offset %r13, -40
	.cfi_offset %r14, -32
	.cfi_offset %r15, -24
	movq	%rsi, %r13
	movq	___stack_chk_guard@GOTPCREL(%rip), %rax
	movq	(%rax), %rax
	movq	%rax, -48(%rbp)
	movq	_cpwCand@GOTPCREL(%rip), %r9
	movl	(%r9), %r10d
	movslq	%edx, %rax
	leal	-1(%rax), %r15d
	addq	_achByFrequency@GOTPCREL(%rip), %rax
	movq	_alPhrase@GOTPCREL(%rip), %rdx
	.p2align	4, 0x90
LBB10_1:                                ## =>This Inner Loop Header: Depth=1
	movsbq	(%rax), %rcx
	shlq	$4, %rcx
	movl	12(%rdx,%rcx), %r12d
	movl	8(%rdx,%rcx), %r14d
	movzbl	4(%rdx,%rcx), %ecx
	shll	%cl, %r14d
	incl	%r15d
	incq	%rax
	testl	%r14d, (%rdi,%r12,8)
	je	LBB10_1
## %bb.2:
	shlq	$3, %r10
	addq	_apwCand@GOTPCREL(%rip), %r10
	cmpq	%r13, %r10
	jbe	LBB10_10
## %bb.3:
	movq	_aqMainSign@GOTPCREL(%rip), %r11
	jmp	LBB10_6
LBB10_13:                               ##   in Loop: Header=BB10_6 Depth=1
	movl	(%r9), %eax
	shlq	$3, %rax
	addq	_apwCand@GOTPCREL(%rip), %rax
	movq	%rax, -72(%rbp)                 ## 8-byte Spill
	leaq	-64(%rbp), %rdi
	movq	%r13, %rsi
	movl	%r15d, %edx
	callq	_FindAnagram
LBB10_18:                               ##   in Loop: Header=BB10_6 Depth=1
	movl	24(%rbx), %eax
	movq	_cchPhraseLength@GOTPCREL(%rip), %rcx
	addl	%eax, (%rcx)
	movq	_cpwLast@GOTPCREL(%rip), %rax
	decl	(%rax)
	movq	-88(%rbp), %rdi                 ## 8-byte Reload
	movq	_cpwCand@GOTPCREL(%rip), %r9
	movq	-72(%rbp), %r10                 ## 8-byte Reload
	movq	_aqMainSign@GOTPCREL(%rip), %r11
LBB10_5:                                ##   in Loop: Header=BB10_6 Depth=1
	addq	$8, %r13
	cmpq	%r10, %r13
	jae	LBB10_10
LBB10_6:                                ## =>This Loop Header: Depth=1
                                        ##     Child Loop BB10_4 Depth 2
                                        ##     Child Loop BB10_16 Depth 2
	movq	(%rdi), %rax
	movq	(%r11), %rcx
	movq	8(%r11), %rdx
	.p2align	4, 0x90
LBB10_4:                                ##   Parent Loop BB10_6 Depth=1
                                        ## =>  This Inner Loop Header: Depth=2
	movq	(%r13), %rbx
	movq	%rax, %rsi
	subq	(%rbx), %rsi
	testq	%rsi, %rcx
	jne	LBB10_5
## %bb.7:                               ##   in Loop: Header=BB10_4 Depth=2
	movq	8(%rdi), %r8
	subq	8(%rbx), %r8
	testq	%r8, %rdx
	jne	LBB10_5
## %bb.8:                               ##   in Loop: Header=BB10_4 Depth=2
	testl	%r14d, (%rbx,%r12,8)
	jne	LBB10_12
## %bb.9:                               ##   in Loop: Header=BB10_4 Depth=2
	movq	-8(%r10), %rsi
	movq	%rsi, (%r13)
	movq	%rbx, -8(%r10)
	leaq	-8(%r10), %rsi
	movq	%rsi, %r10
	cmpq	%rsi, %r13
	jb	LBB10_4
	jmp	LBB10_10
	.p2align	4, 0x90
LBB10_12:                               ##   in Loop: Header=BB10_6 Depth=1
	movq	%r8, -56(%rbp)
	movq	%rsi, -64(%rbp)
	movq	_cpwLast@GOTPCREL(%rip), %rdx
	movslq	(%rdx), %rax
	leal	1(%rax), %ecx
	movl	%ecx, (%rdx)
	movq	_apwSol@GOTPCREL(%rip), %rsi
	movq	%rbx, (%rsi,%rax,8)
	movl	24(%rbx), %ecx
	movq	_cchPhraseLength@GOTPCREL(%rip), %r8
	subl	%ecx, (%r8)
	movq	%rdi, -88(%rbp)                 ## 8-byte Spill
	jne	LBB10_13
## %bb.14:                              ##   in Loop: Header=BB10_6 Depth=1
	movq	%r10, -72(%rbp)                 ## 8-byte Spill
	movq	%r13, -80(%rbp)                 ## 8-byte Spill
	testl	%eax, %eax
	js	LBB10_17
## %bb.15:                              ##   in Loop: Header=BB10_6 Depth=1
	xorl	%r13d, %r13d
	.p2align	4, 0x90
LBB10_16:                               ##   Parent Loop BB10_6 Depth=1
                                        ## =>  This Inner Loop Header: Depth=2
	movq	(%rsi,%r13,8), %rax
	movq	16(%rax), %rsi
	leaq	L_.str.9(%rip), %rdi
	xorl	%eax, %eax
	callq	_libmin_printf
	movq	_apwSol@GOTPCREL(%rip), %rsi
	movq	_cpwLast@GOTPCREL(%rip), %rax
	incq	%r13
	movslq	(%rax), %rax
	cmpq	%rax, %r13
	jl	LBB10_16
LBB10_17:                               ##   in Loop: Header=BB10_6 Depth=1
	leaq	L_.str.13(%rip), %rdi
	xorl	%eax, %eax
	callq	_libmin_printf
	movq	-80(%rbp), %r13                 ## 8-byte Reload
	jmp	LBB10_18
LBB10_10:
	movq	___stack_chk_guard@GOTPCREL(%rip), %rax
	movq	(%rax), %rax
	cmpq	-48(%rbp), %rax
	jne	LBB10_19
## %bb.11:
	addq	$56, %rsp
	popq	%rbx
	popq	%r12
	popq	%r13
	popq	%r14
	popq	%r15
	popq	%rbp
	retq
LBB10_19:
	callq	___stack_chk_fail
	.cfi_endproc
                                        ## -- End function
	.globl	_CompareFrequency               ## -- Begin function CompareFrequency
	.p2align	4, 0x90
_CompareFrequency:                      ## @CompareFrequency
	.cfi_startproc
## %bb.0:
	pushq	%rbp
	.cfi_def_cfa_offset 16
	.cfi_offset %rbp, -16
	movq	%rsp, %rbp
	.cfi_def_cfa_register %rbp
	movsbq	(%rdi), %rax
	movq	_auGlobalFrequency@GOTPCREL(%rip), %rcx
	movl	(%rcx,%rax,4), %eax
	movsbq	(%rsi), %rdx
	xorl	%esi, %esi
	cmpl	(%rcx,%rdx,4), %eax
	setne	%sil
	movl	$-1, %eax
	cmovael	%esi, %eax
	popq	%rbp
	retq
	.cfi_endproc
                                        ## -- End function
	.section	__TEXT,__literal16,16byte_literals
	.p2align	4, 0x0                          ## -- Begin function SortCandidates
LCPI12_0:
	.byte	0                               ## 0x0
	.byte	1                               ## 0x1
	.byte	2                               ## 0x2
	.byte	3                               ## 0x3
	.byte	4                               ## 0x4
	.byte	5                               ## 0x5
	.byte	6                               ## 0x6
	.byte	7                               ## 0x7
	.byte	8                               ## 0x8
	.byte	9                               ## 0x9
	.byte	10                              ## 0xa
	.byte	11                              ## 0xb
	.byte	12                              ## 0xc
	.byte	13                              ## 0xd
	.byte	14                              ## 0xe
	.byte	15                              ## 0xf
	.section	__TEXT,__text,regular,pure_instructions
	.globl	_SortCandidates
	.p2align	4, 0x90
_SortCandidates:                        ## @SortCandidates
	.cfi_startproc
## %bb.0:
	pushq	%rbp
	.cfi_def_cfa_offset 16
	.cfi_offset %rbp, -16
	movq	%rsp, %rbp
	.cfi_def_cfa_register %rbp
	pushq	%r14
	pushq	%rbx
	.cfi_offset %rbx, -32
	.cfi_offset %r14, -24
	movaps	LCPI12_0(%rip), %xmm0           ## xmm0 = [0,1,2,3,4,5,6,7,8,9,10,11,12,13,14,15]
	movq	_achByFrequency@GOTPCREL(%rip), %rbx
	movaps	%xmm0, (%rbx)
	movabsq	$1663540288323457296, %rax      ## imm = 0x1716151413121110
	movq	%rax, 16(%rbx)
	movw	$6424, 24(%rbx)                 ## imm = 0x1918
	leaq	_CompareFrequency(%rip), %rcx
	movl	$26, %esi
	movl	$1, %edx
	movq	%rbx, %rdi
	callq	_libmin_qsort
	leaq	L_.str.14(%rip), %rdi
	xorl	%r14d, %r14d
	xorl	%eax, %eax
	callq	_libmin_printf
	.p2align	4, 0x90
LBB12_1:                                ## =>This Inner Loop Header: Depth=1
	movzbl	(%rbx,%r14), %eax
	addb	$97, %al
	movsbl	%al, %edi
	callq	_libmin_putc
	incq	%r14
	cmpq	$26, %r14
	jne	LBB12_1
## %bb.2:
	movl	$10, %edi
	popq	%rbx
	popq	%r14
	popq	%rbp
	jmp	_libmin_putc                    ## TAILCALL
	.cfi_endproc
                                        ## -- End function
	.globl	_GetPhrase                      ## -- Begin function GetPhrase
	.p2align	4, 0x90
_GetPhrase:                             ## @GetPhrase
	.cfi_startproc
## %bb.0:
	pushq	%rbp
	.cfi_def_cfa_offset 16
	.cfi_offset %rbp, -16
	movq	%rsp, %rbp
	.cfi_def_cfa_register %rbp
	pushq	%rbx
	pushq	%rax
	.cfi_offset %rbx, -24
	movq	%rdi, %rbx
	movq	_minput(%rip), %rdx
	movl	$255, %esi
	callq	_libmin_mgets
	testq	%rax, %rax
	cmovneq	%rbx, %rax
	addq	$8, %rsp
	popq	%rbx
	popq	%rbp
	retq
	.cfi_endproc
                                        ## -- End function
	.globl	_main                           ## -- Begin function main
	.p2align	4, 0x90
_main:                                  ## @main
	.cfi_startproc
## %bb.0:
	pushq	%rbp
	.cfi_def_cfa_offset 16
	.cfi_offset %rbp, -16
	movq	%rsp, %rbp
	.cfi_def_cfa_register %rbp
	pushq	%r15
	pushq	%r14
	pushq	%r13
	pushq	%r12
	pushq	%rbx
	pushq	%rax
	.cfi_offset %rbx, -56
	.cfi_offset %r12, -48
	.cfi_offset %r13, -40
	.cfi_offset %r14, -32
	.cfi_offset %r15, -24
                                        ## kill: def $edi killed $edi def $rdi
	leal	-4(%rdi), %eax
	cmpl	$-3, %eax
	ja	LBB14_2
## %bb.1:
	leaq	L_.str.15(%rip), %rdi
	xorl	%esi, %esi
	xorl	%eax, %eax
	callq	_libmin_printf
	movl	$1, %edi
	callq	_libmin_fail
	jmp	LBB14_4
LBB14_2:
	cmpl	$3, %edi
	jne	LBB14_4
## %bb.3:
	movq	16(%rsi), %rdi
	callq	_libmin_atoi
	movl	%eax, _cchMinLength(%rip)
LBB14_4:
	callq	_ReadDict
	movq	_minput(%rip), %rdx
	movq	_achPhrase@GOTPCREL(%rip), %r13
	movl	$255, %esi
	movq	%r13, %rdi
	callq	_libmin_mgets
	testq	%rax, %rax
	je	LBB14_27
## %bb.5:
	movq	_cpwCand@GOTPCREL(%rip), %r14
	movq	_apwCand@GOTPCREL(%rip), %r12
	leaq	L_.str.12(%rip), %r15
	movq	_cchPhraseLength@GOTPCREL(%rip), %rbx
	jmp	LBB14_6
	.p2align	4, 0x90
LBB14_7:                                ##   in Loop: Header=BB14_6 Depth=1
	movq	%r13, %rdi
	callq	_libmin_atoi
	movl	%eax, _cchMinLength(%rip)
	leaq	L_.str.16(%rip), %rdi
	movl	%eax, %esi
	xorl	%eax, %eax
	callq	_libmin_printf
LBB14_26:                               ##   in Loop: Header=BB14_6 Depth=1
	movq	_minput(%rip), %rdx
	movl	$255, %esi
	movq	%r13, %rdi
	callq	_libmin_mgets
	testq	%rax, %rax
	je	LBB14_27
LBB14_6:                                ## =>This Loop Header: Depth=1
                                        ##     Child Loop BB14_16 Depth 2
                                        ##     Child Loop BB14_11 Depth 2
	movq	__pctype@GOTPCREL(%rip), %rax
	movq	(%rax), %rcx
	movsbq	(%r13), %rax
	testb	$4, (%rcx,%rax,2)
	jne	LBB14_7
## %bb.8:                               ##   in Loop: Header=BB14_6 Depth=1
	cmpb	$63, %al
	jne	LBB14_13
## %bb.9:                               ##   in Loop: Header=BB14_6 Depth=1
	cmpl	$0, (%r14)
	movl	$10, %ebx
	je	LBB14_12
## %bb.10:                              ##   in Loop: Header=BB14_6 Depth=1
	xorl	%r13d, %r13d
	.p2align	4, 0x90
LBB14_11:                               ##   Parent Loop BB14_6 Depth=1
                                        ## =>  This Inner Loop Header: Depth=2
	movq	(%r12,%r13,8), %rax
	movq	16(%rax), %rsi
	movl	%r13d, %eax
	notl	%eax
	testb	$3, %al
	movl	$32, %edx
	cmovel	%ebx, %edx
	movq	%r15, %rdi
	xorl	%eax, %eax
	callq	_libmin_printf
	incq	%r13
	movl	(%r14), %eax
	cmpq	%rax, %r13
	jb	LBB14_11
LBB14_12:                               ##   in Loop: Header=BB14_6 Depth=1
	leaq	L_.str.13(%rip), %rdi
	xorl	%eax, %eax
	callq	_libmin_printf
	movq	_achPhrase@GOTPCREL(%rip), %r13
	movq	_cchPhraseLength@GOTPCREL(%rip), %rbx
	jmp	LBB14_26
	.p2align	4, 0x90
LBB14_13:                               ##   in Loop: Header=BB14_6 Depth=1
	movq	%r13, %rdi
	callq	_BuildMask
	movq	_pchDictionary@GOTPCREL(%rip), %rax
	movq	(%rax), %r13
	movl	$0, (%r14)
	movzbl	(%r13), %eax
	testb	%al, %al
	je	LBB14_14
## %bb.15:                              ##   in Loop: Header=BB14_6 Depth=1
	movl	_cchMinLength(%rip), %ecx
	jmp	LBB14_16
	.p2align	4, 0x90
LBB14_20:                               ##   in Loop: Header=BB14_16 Depth=2
	leaq	2(%r13), %rdi
	callq	_BuildWord
	movl	_cchMinLength(%rip), %ecx
	movzbl	(%r13), %eax
LBB14_21:                               ##   in Loop: Header=BB14_16 Depth=2
	movsbq	%al, %rdx
	movzbl	(%r13,%rdx), %eax
	addq	%rdx, %r13
	testb	%al, %al
	je	LBB14_22
LBB14_16:                               ##   Parent Loop BB14_6 Depth=1
                                        ## =>  This Inner Loop Header: Depth=2
	movsbl	1(%r13), %edx
	cmpl	%edx, %ecx
	jle	LBB14_17
## %bb.19:                              ##   in Loop: Header=BB14_16 Depth=2
	cmpl	%edx, (%rbx)
	je	LBB14_20
	jmp	LBB14_21
	.p2align	4, 0x90
LBB14_17:                               ##   in Loop: Header=BB14_16 Depth=2
	leal	(%rcx,%rdx), %edi
	movl	(%rbx), %esi
	cmpl	%esi, %edi
	jle	LBB14_20
## %bb.18:                              ##   in Loop: Header=BB14_16 Depth=2
	cmpl	%edx, %esi
	jne	LBB14_21
	jmp	LBB14_20
LBB14_22:                               ##   in Loop: Header=BB14_6 Depth=1
	movl	(%r14), %esi
	jmp	LBB14_23
LBB14_14:                               ##   in Loop: Header=BB14_6 Depth=1
	xorl	%esi, %esi
LBB14_23:                               ##   in Loop: Header=BB14_6 Depth=1
	movq	_achPhrase@GOTPCREL(%rip), %r13
	leaq	L_.str.11(%rip), %rdi
	xorl	%eax, %eax
	callq	_libmin_printf
	cmpl	$0, (%r14)
	je	LBB14_26
## %bb.24:                              ##   in Loop: Header=BB14_6 Depth=1
	cmpl	$0, (%rbx)
	je	LBB14_26
## %bb.25:                              ##   in Loop: Header=BB14_6 Depth=1
	movq	_cpwLast@GOTPCREL(%rip), %rax
	movl	$0, (%rax)
	callq	_SortCandidates
	movq	_aqMainMask@GOTPCREL(%rip), %rdi
	movq	%r12, %rsi
	xorl	%edx, %edx
	callq	_FindAnagram
	jmp	LBB14_26
LBB14_27:
	callq	_libmin_success
	xorl	%eax, %eax
	addq	$8, %rsp
	popq	%rbx
	popq	%r12
	popq	%r13
	popq	%r14
	popq	%r15
	popq	%rbp
	retq
	.cfi_endproc
                                        ## -- End function
	.section	__TEXT,__const
	.globl	___words                        ## @__words
	.p2align	4, 0x0
___words:
